target datalayout = "e-m:e-p270:32:32-p271:32:32-p272:64:64-i64:64-i128:128-f80:128-n8:16:32:64-S128"
target triple = "x86_64-pc-linux-gnu"

%struct.List = type { i32, i32, i32, ptr, [0 x %union.ListCell] }
%union.ListCell = type { ptr }

@activeTempCreationPending = internal global i8 0, align 1
@activeCreationNamespace = internal global i32 0, align 4
@activeSearchPath = internal global ptr null, align 8

; Function Attrs: inlinehint nounwind uwtable
define internal ptr @list_nth_cell(ptr noundef %0, i32 noundef %1) #7 {
  %3 = alloca ptr, align 8
  %4 = alloca i32, align 4
  store ptr %0, ptr %3, align 8
  store i32 %1, ptr %4, align 4
  %5 = load ptr, ptr %3, align 8
  %6 = getelementptr inbounds nuw %struct.List, ptr %5, i32 0, i32 3
  %7 = load ptr, ptr %6, align 8
  %8 = load i32, ptr %4, align 4
  %9 = sext i32 %8 to i64
  %10 = getelementptr inbounds %union.ListCell, ptr %7, i64 %9
  ret ptr %10
}

; Function Attrs: nounwind uwtable
define dso_local ptr @fetch_search_path(i1 noundef zeroext %0) #0 {
  %2 = alloca i8, align 1
  %3 = alloca ptr, align 8
  %4 = zext i1 %0 to i8
  store i8 %4, ptr %2, align 1
  call void @llvm.lifetime.start.p0(i64 8, ptr %3) #14
  call void @recomputeNamespacePath()
  %5 = load i8, ptr @activeTempCreationPending, align 1, !range !4, !noundef !5
  %6 = trunc i8 %5 to i1
  br i1 %6, label %7, label %8

7:                                                ; preds = %1
  call void @AccessTempTableNamespace(i1 noundef zeroext true)
  call void @recomputeNamespacePath()
  br label %8

8:                                                ; preds = %7, %1
  %9 = load ptr, ptr @activeSearchPath, align 8
  %10 = call ptr @list_copy(ptr noundef %9)
  store ptr %10, ptr %3, align 8
  %11 = load i8, ptr %2, align 1, !range !4, !noundef !5
  %12 = trunc i8 %11 to i1
  br i1 %12, label %29, label %13

13:                                               ; preds = %8
  br label %14

14:                                               ; preds = %25, %13
  %15 = load ptr, ptr %3, align 8
  %16 = icmp ne ptr %15, null
  br i1 %16, label %17, label %23

17:                                               ; preds = %14
  %18 = load ptr, ptr %3, align 8
  %19 = call ptr @list_nth_cell(ptr noundef %18, i32 noundef 0)
  %20 = load i32, ptr %19, align 8
  %21 = load i32, ptr @activeCreationNamespace, align 4
  %22 = icmp ne i32 %20, %21
  br label %23

23:                                               ; preds = %17, %14
  %24 = phi i1 [ false, %14 ], [ %22, %17 ]
  br i1 %24, label %25, label %28

25:                                               ; preds = %23
  %26 = load ptr, ptr %3, align 8
  %27 = call ptr @list_delete_first(ptr noundef %26)
  store ptr %27, ptr %3, align 8
  br label %14, !llvm.loop !48

28:                                               ; preds = %23
  br label %29

29:                                               ; preds = %28, %8
  %30 = load ptr, ptr %3, align 8
  call void @llvm.lifetime.end.p0(i64 8, ptr %3) #14
  ret ptr %30
}