; Function Attrs: nounwind uwtable
define dso_local ptr @fetch_search_path(i1 noundef zeroext %0) local_unnamed_addr #0 {
  tail call fastcc void @recomputeNamespacePath()
  %2 = load i8, ptr @activeTempCreationPending, align 1, !range !4, !noundef !5
  %3 = trunc nuw i8 %2 to i1
  br i1 %3, label %4, label %5

4:                                                ; preds = %1
  tail call fastcc void @AccessTempTableNamespace(i1 noundef zeroext true)
  tail call fastcc void @recomputeNamespacePath()
  br label %5

5:                                                ; preds = %4, %1
  %6 = load ptr, ptr @activeSearchPath, align 8
  %7 = tail call ptr @list_copy(ptr noundef %6) #19
  %8 = icmp eq ptr %7, null
  %or.cond.not = select i1 %0, i1 true, i1 %8
  br i1 %or.cond.not, label %.critedge, label %.preheader

.preheader:                                       ; preds = %5, %12
  %.1 = phi ptr [ %13, %12 ], [ %7, %5 ]
  %9 = getelementptr i8, ptr %.1, i64 16
  %.1.val = load ptr, ptr %9, align 8
  %10 = load i32, ptr %.1.val, align 8
  %11 = load i32, ptr @activeCreationNamespace, align 4
  %.not = icmp eq i32 %10, %11
  br i1 %.not, label %.critedge, label %12

12:                                               ; preds = %.preheader
  %13 = tail call ptr @list_delete_first(ptr noundef nonnull %.1) #19
  %.old1.not = icmp eq ptr %13, null
  br i1 %.old1.not, label %.critedge, label %.preheader

.critedge:                                        ; preds = %.preheader, %12, %5
  %.0 = phi ptr [ %7, %5 ], [ %.1, %.preheader ], [ null, %12 ]
  ret ptr %.0
}